target datalayout = "e-m:e-p270:32:32-p271:32:32-p272:64:64-i64:64-i128:128-f80:128-n8:16:32:64-S128"
target triple = "x86_64-pc-linux-gnu"

%struct.Curl_multi = type { i32, i32, i32, %struct.Curl_llist, %struct.Curl_llist, %struct.Curl_llist, %struct.Curl_llist, i64, ptr, ptr, ptr, ptr, %struct.Curl_hash, ptr, %struct.PslCache, ptr, ptr, i64, ptr, i64, ptr, i64, %struct.Curl_hash, %struct.Curl_hash, %struct.cpool, i64, i64, ptr, ptr, i64, %struct.curltime, [2 x i32], i32, i32, i8, i8 }
%struct.Curl_llist = type { ptr, ptr, ptr, i64 }
%struct.PslCache = type { ptr, i64, i8 }
%struct.Curl_hash = type { ptr, ptr, ptr, ptr, i64, i64 }
%struct.cpool = type { %struct.Curl_hash, i64, i64, i64, %struct.curltime, %struct.Curl_llist, ptr, ptr, ptr, ptr, i8 }
%struct.curltime = type { i64, i32 }
%struct.Curl_llist_node = type { ptr, ptr, ptr, ptr }
%struct.Curl_easy = type { i32, i64, i64, ptr, %struct.Curl_llist_node, %struct.Curl_llist_node, i32, i32, %struct.Curl_message, %struct.easy_pollset, %struct.Names, ptr, ptr, ptr, ptr, %struct.SingleRequest, %struct.UserDefined, ptr, ptr, ptr, %struct.Progress, %struct.UrlState, ptr, %struct.PureInfo, %struct.curl_tlssessioninfo }
%struct.Curl_message = type { %struct.Curl_llist_node, %struct.CURLMsg }
%struct.CURLMsg = type { i32, ptr, %union.anon }
%union.anon = type { ptr }
%struct.easy_pollset = type { [5 x i32], i32, [5 x i8] }
%struct.Names = type { ptr, i32 }
%struct.SingleRequest = type <{ i64, i64, i64, i64, %struct.curltime, i32, i32, i32, i32, i64, i32, i32, i8, i8, [2 x i8], i32, ptr, ptr, %struct.bufq, i64, i64, ptr, ptr, %union.anon.0, ptr, i8, i32, [3 x i8] }>
%struct.bufq = type { ptr, ptr, ptr, ptr, i64, i64, i64, i32 }
%union.anon.0 = type { ptr }
%struct.UserDefined = type <{ ptr, ptr, ptr, ptr, ptr, ptr, i64, i64, i64, ptr, ptr, i64, ptr, ptr, ptr, ptr, ptr, ptr, ptr, ptr, ptr, ptr, ptr, ptr, ptr, ptr, ptr, ptr, ptr, ptr, ptr, ptr, ptr, ptr, ptr, i64, i64, i64, i64, i64, i64, i64, i64, i64, ptr, ptr, %struct.curl_mimepart, ptr, ptr, ptr, i64, %struct.ssl_config_data, %struct.ssl_config_data, ptr, i16, i8, i8, %struct.ssl_general_config, i32, i32, i32, [4 x i8], ptr, ptr, i64, i32, i8, i8, i8, i8, ptr, ptr, ptr, i32, [4 x i8], [74 x ptr], [8 x ptr], i32, i32, i32, [4 x i8], ptr, i32, [4 x i8], ptr, ptr, ptr, ptr, ptr, i32, i32, i32, i32, i32, i32, i32, i32, i64, ptr, ptr, i64, ptr, i64, ptr, ptr, ptr, ptr, i32, i16, i16, i16, i8, i8, i8, i8, i8, i8, i8, i8, i64, [6 x i8] }>
%struct.curl_mimepart = type { ptr, ptr, i32, i32, ptr, ptr, ptr, ptr, ptr, ptr, ptr, ptr, ptr, ptr, ptr, i64, %struct.mime_state, ptr, %struct.mime_encoder_state, i64 }
%struct.mime_state = type { i32, ptr, i64 }
%struct.mime_encoder_state = type { i64, i64, i64, [256 x i8] }
%struct.ssl_config_data = type { %struct.ssl_primary_config, i64, ptr, ptr, ptr, ptr, ptr, ptr, ptr, i16 }
%struct.ssl_primary_config = type { ptr, ptr, ptr, ptr, ptr, ptr, ptr, ptr, ptr, ptr, ptr, ptr, ptr, ptr, i8, i32, i8, i8 }
%struct.ssl_general_config = type { i32 }
%struct.Progress = type { i64, %struct.pgrs_dir, %struct.pgrs_dir, i64, i64, i32, i32, i64, i64, i64, i64, i64, i64, i64, i64, i64, %struct.curltime, %struct.curltime, %struct.curltime, %struct.curltime, %struct.curltime, [6 x i64], [6 x %struct.curltime], i32, i8 }
%struct.pgrs_dir = type { i64, i64, i64, %struct.pgrs_measure }
%struct.pgrs_measure = type { %struct.curltime, i64 }
%struct.UrlState = type { %struct.curltime, i64, i64, %struct.dynbuf, ptr, i64, ptr, i32, i32, i32, ptr, i32, i64, i32, ptr, %struct.digestdata, %struct.digestdata, %struct.auth, %struct.auth, %struct.Curl_async, ptr, i8, %struct.curltime, %struct.Curl_tree, %struct.Curl_llist, [15 x %struct.time_node], ptr, ptr, i64, i64, i64, i64, [32 x i8], i64, ptr, ptr, ptr, %struct.urlpieces, ptr, ptr, ptr, ptr, ptr, i64, %struct.dynbuf, %struct.Curl_llist, [2 x %struct.curl_header], ptr, i32, ptr, ptr, %struct.store_netrc, %struct.dynamically_allocated_data, i8, i8, i8, i8, i32 }
%struct.digestdata = type { ptr, ptr, ptr, ptr, ptr, ptr, i32, i8, i8 }
%struct.auth = type { i64, i64, i64, i8 }
%struct.Curl_async = type { ptr, ptr, ptr, ptr, i32, i32, i8 }
%struct.Curl_tree = type { ptr, ptr, ptr, ptr, %struct.curltime, ptr }
%struct.time_node = type { %struct.Curl_llist_node, %struct.curltime, i32 }
%struct.urlpieces = type { ptr, ptr, ptr, ptr, ptr, ptr, ptr, ptr }
%struct.dynbuf = type { ptr, i64, i64, i64 }
%struct.curl_header = type { ptr, ptr, i64, i64, i32, ptr }
%struct.store_netrc = type { %struct.dynbuf, ptr, i8 }
%struct.dynamically_allocated_data = type { ptr, ptr, ptr, ptr, ptr, ptr, ptr, ptr, ptr, ptr, ptr, ptr, ptr, ptr }
%struct.PureInfo = type { i32, i32, i32, i64, i64, i64, i64, i64, i64, i64, ptr, ptr, i64, i32, %struct.ip_quadruple, i32, ptr, i32, %struct.curl_certinfo, i32, i8 }
%struct.ip_quadruple = type { [46 x i8], [46 x i8], i32, i32 }
%struct.curl_certinfo = type { i32, ptr }
%struct.curl_tlssessioninfo = type { i32, ptr }

@Curl_cfree = external global ptr, align 8
@Curl_cmalloc = external global ptr, align 8
@.str.2 = private unnamed_addr constant [29 x i8] c"transfer has no multi handle\00", align 1
@.str.3 = private unnamed_addr constant [26 x i8] c"transfer buffer size is 0\00", align 1
@.str.4 = private unnamed_addr constant [49 x i8] c"attempt to borrow xfer_buf when already borrowed\00", align 1
@.str.5 = private unnamed_addr constant [41 x i8] c"could not allocate xfer_buf of %zu bytes\00", align 1

; Function Attrs: nounwind uwtable
define hidden i32 @Curl_multi_xfer_buf_borrow(ptr noundef %0, ptr noundef %1, ptr noundef %2) #0 {
  %4 = alloca i32, align 4
  %5 = alloca ptr, align 8
  %6 = alloca ptr, align 8
  %7 = alloca ptr, align 8
  store ptr %0, ptr %5, align 8, !tbaa !43
  store ptr %1, ptr %6, align 8, !tbaa !251
  store ptr %2, ptr %7, align 8, !tbaa !245
  br label %8

8:                                                ; preds = %3
  br label %9

9:                                                ; preds = %8
  br label %10

10:                                               ; preds = %9
  br label %11

11:                                               ; preds = %10
  %12 = load ptr, ptr %6, align 8, !tbaa !251
  store ptr null, ptr %12, align 8, !tbaa !253
  %13 = load ptr, ptr %7, align 8, !tbaa !245
  store i64 0, ptr %13, align 8, !tbaa !3
  %14 = load ptr, ptr %5, align 8, !tbaa !43
  %15 = getelementptr inbounds nuw %struct.Curl_easy, ptr %14, i32 0, i32 11
  %16 = load ptr, ptr %15, align 8, !tbaa !100
  %17 = icmp ne ptr %16, null
  br i1 %17, label %20, label %18

18:                                               ; preds = %11
  %19 = load ptr, ptr %5, align 8, !tbaa !43
  call void (ptr, ptr, ...) @Curl_failf(ptr noundef %19, ptr noundef @.str.2)
  store i32 2, ptr %4, align 4
  br label %136

20:                                               ; preds = %11
  %21 = load ptr, ptr %5, align 8, !tbaa !43
  %22 = getelementptr inbounds nuw %struct.Curl_easy, ptr %21, i32 0, i32 16
  %23 = getelementptr inbounds nuw %struct.UserDefined, ptr %22, i32 0, i32 59
  %24 = load i32, ptr %23, align 4, !tbaa !254
  %25 = icmp ne i32 %24, 0
  br i1 %25, label %28, label %26

26:                                               ; preds = %20
  %27 = load ptr, ptr %5, align 8, !tbaa !43
  call void (ptr, ptr, ...) @Curl_failf(ptr noundef %27, ptr noundef @.str.3)
  store i32 2, ptr %4, align 4
  br label %136

28:                                               ; preds = %20
  %29 = load ptr, ptr %5, align 8, !tbaa !43
  %30 = getelementptr inbounds nuw %struct.Curl_easy, ptr %29, i32 0, i32 11
  %31 = load ptr, ptr %30, align 8, !tbaa !100
  %32 = getelementptr inbounds nuw %struct.Curl_multi, ptr %31, i32 0, i32 35
  %33 = load i8, ptr %32, align 1
  %34 = lshr i8 %33, 5
  %35 = and i8 %34, 1
  %36 = zext i8 %35 to i32
  %37 = icmp ne i32 %36, 0
  br i1 %37, label %38, label %40

38:                                               ; preds = %28
  %39 = load ptr, ptr %5, align 8, !tbaa !43
  call void (ptr, ptr, ...) @Curl_failf(ptr noundef %39, ptr noundef @.str.4)
  store i32 81, ptr %4, align 4
  br label %136

40:                                               ; preds = %28
  %41 = load ptr, ptr %5, align 8, !tbaa !43
  %42 = getelementptr inbounds nuw %struct.Curl_easy, ptr %41, i32 0, i32 11
  %43 = load ptr, ptr %42, align 8, !tbaa !100
  %44 = getelementptr inbounds nuw %struct.Curl_multi, ptr %43, i32 0, i32 16
  %45 = load ptr, ptr %44, align 8, !tbaa !216
  %46 = icmp ne ptr %45, null
  br i1 %46, label %47, label %74

47:                                               ; preds = %40
  %48 = load ptr, ptr %5, align 8, !tbaa !43
  %49 = getelementptr inbounds nuw %struct.Curl_easy, ptr %48, i32 0, i32 16
  %50 = getelementptr inbounds nuw %struct.UserDefined, ptr %49, i32 0, i32 59
  %51 = load i32, ptr %50, align 4, !tbaa !254
  %52 = zext i32 %51 to i64
  %53 = load ptr, ptr %5, align 8, !tbaa !43
  %54 = getelementptr inbounds nuw %struct.Curl_easy, ptr %53, i32 0, i32 11
  %55 = load ptr, ptr %54, align 8, !tbaa !100
  %56 = getelementptr inbounds nuw %struct.Curl_multi, ptr %55, i32 0, i32 17
  %57 = load i64, ptr %56, align 8, !tbaa !217
  %58 = icmp ugt i64 %52, %57
  br i1 %58, label %59, label %74

59:                                               ; preds = %47
  %60 = load ptr, ptr @Curl_cfree, align 8, !tbaa !7
  %61 = load ptr, ptr %5, align 8, !tbaa !43
  %62 = getelementptr inbounds nuw %struct.Curl_easy, ptr %61, i32 0, i32 11
  %63 = load ptr, ptr %62, align 8, !tbaa !100
  %64 = getelementptr inbounds nuw %struct.Curl_multi, ptr %63, i32 0, i32 16
  %65 = load ptr, ptr %64, align 8, !tbaa !216
  call void %60(ptr noundef %65)
  %66 = load ptr, ptr %5, align 8, !tbaa !43
  %67 = getelementptr inbounds nuw %struct.Curl_easy, ptr %66, i32 0, i32 11
  %68 = load ptr, ptr %67, align 8, !tbaa !100
  %69 = getelementptr inbounds nuw %struct.Curl_multi, ptr %68, i32 0, i32 16
  store ptr null, ptr %69, align 8, !tbaa !216
  %70 = load ptr, ptr %5, align 8, !tbaa !43
  %71 = getelementptr inbounds nuw %struct.Curl_easy, ptr %70, i32 0, i32 11
  %72 = load ptr, ptr %71, align 8, !tbaa !100
  %73 = getelementptr inbounds nuw %struct.Curl_multi, ptr %72, i32 0, i32 17
  store i64 0, ptr %73, align 8, !tbaa !217
  br label %74

74:                                               ; preds = %59, %47, %40
  %75 = load ptr, ptr %5, align 8, !tbaa !43
  %76 = getelementptr inbounds nuw %struct.Curl_easy, ptr %75, i32 0, i32 11
  %77 = load ptr, ptr %76, align 8, !tbaa !100
  %78 = getelementptr inbounds nuw %struct.Curl_multi, ptr %77, i32 0, i32 16
  %79 = load ptr, ptr %78, align 8, !tbaa !216
  %80 = icmp ne ptr %79, null
  br i1 %80, label %116, label %81

81:                                               ; preds = %74
  %82 = load ptr, ptr @Curl_cmalloc, align 8, !tbaa !7
  %83 = load ptr, ptr %5, align 8, !tbaa !43
  %84 = getelementptr inbounds nuw %struct.Curl_easy, ptr %83, i32 0, i32 16
  %85 = getelementptr inbounds nuw %struct.UserDefined, ptr %84, i32 0, i32 59
  %86 = load i32, ptr %85, align 4, !tbaa !254
  %87 = zext i32 %86 to i64
  %88 = call ptr %82(i64 noundef %87)
  %89 = load ptr, ptr %5, align 8, !tbaa !43
  %90 = getelementptr inbounds nuw %struct.Curl_easy, ptr %89, i32 0, i32 11
  %91 = load ptr, ptr %90, align 8, !tbaa !100
  %92 = getelementptr inbounds nuw %struct.Curl_multi, ptr %91, i32 0, i32 16
  store ptr %88, ptr %92, align 8, !tbaa !216
  %93 = load ptr, ptr %5, align 8, !tbaa !43
  %94 = getelementptr inbounds nuw %struct.Curl_easy, ptr %93, i32 0, i32 11
  %95 = load ptr, ptr %94, align 8, !tbaa !100
  %96 = getelementptr inbounds nuw %struct.Curl_multi, ptr %95, i32 0, i32 16
  %97 = load ptr, ptr %96, align 8, !tbaa !216
  %98 = icmp ne ptr %97, null
  br i1 %98, label %106, label %99

99:                                               ; preds = %81
  %100 = load ptr, ptr %5, align 8, !tbaa !43
  %101 = load ptr, ptr %5, align 8, !tbaa !43
  %102 = getelementptr inbounds nuw %struct.Curl_easy, ptr %101, i32 0, i32 16
  %103 = getelementptr inbounds nuw %struct.UserDefined, ptr %102, i32 0, i32 59
  %104 = load i32, ptr %103, align 4, !tbaa !254
  %105 = zext i32 %104 to i64
  call void (ptr, ptr, ...) @Curl_failf(ptr noundef %100, ptr noundef @.str.5, i64 noundef %105)
  store i32 27, ptr %4, align 4
  br label %136

106:                                              ; preds = %81
  %107 = load ptr, ptr %5, align 8, !tbaa !43
  %108 = getelementptr inbounds nuw %struct.Curl_easy, ptr %107, i32 0, i32 16
  %109 = getelementptr inbounds nuw %struct.UserDefined, ptr %108, i32 0, i32 59
  %110 = load i32, ptr %109, align 4, !tbaa !254
  %111 = zext i32 %110 to i64
  %112 = load ptr, ptr %5, align 8, !tbaa !43
  %113 = getelementptr inbounds nuw %struct.Curl_easy, ptr %112, i32 0, i32 11
  %114 = load ptr, ptr %113, align 8, !tbaa !100
  %115 = getelementptr inbounds nuw %struct.Curl_multi, ptr %114, i32 0, i32 17
  store i64 %111, ptr %115, align 8, !tbaa !217
  br label %116

116:                                              ; preds = %106, %74
  %117 = load ptr, ptr %5, align 8, !tbaa !43
  %118 = getelementptr inbounds nuw %struct.Curl_easy, ptr %117, i32 0, i32 11
  %119 = load ptr, ptr %118, align 8, !tbaa !100
  %120 = getelementptr inbounds nuw %struct.Curl_multi, ptr %119, i32 0, i32 35
  %121 = load i8, ptr %120, align 1
  %122 = and i8 %121, -33
  %123 = or i8 %122, 32
  store i8 %123, ptr %120, align 1
  %124 = load ptr, ptr %5, align 8, !tbaa !43
  %125 = getelementptr inbounds nuw %struct.Curl_easy, ptr %124, i32 0, i32 11
  %126 = load ptr, ptr %125, align 8, !tbaa !100
  %127 = getelementptr inbounds nuw %struct.Curl_multi, ptr %126, i32 0, i32 16
  %128 = load ptr, ptr %127, align 8, !tbaa !216
  %129 = load ptr, ptr %6, align 8, !tbaa !251
  store ptr %128, ptr %129, align 8, !tbaa !253
  %130 = load ptr, ptr %5, align 8, !tbaa !43
  %131 = getelementptr inbounds nuw %struct.Curl_easy, ptr %130, i32 0, i32 11
  %132 = load ptr, ptr %131, align 8, !tbaa !100
  %133 = getelementptr inbounds nuw %struct.Curl_multi, ptr %132, i32 0, i32 17
  %134 = load i64, ptr %133, align 8, !tbaa !217
  %135 = load ptr, ptr %7, align 8, !tbaa !245
  store i64 %134, ptr %135, align 8, !tbaa !3
  store i32 0, ptr %4, align 4
  br label %136

136:                                              ; preds = %116, %99, %38, %26, %18
  %137 = load i32, ptr %4, align 4
  ret i32 %137
}