; Function Attrs: nounwind uwtable
define hidden range(i32 0, 82) i32 @Curl_multi_xfer_buf_borrow(ptr noundef %0, ptr noundef writeonly captures(none) initializes((0, 8)) %1, ptr noundef writeonly captures(none) initializes((0, 8)) %2) local_unnamed_addr #0 {
  store ptr null, ptr %1, align 8, !tbaa !179
  store i64 0, ptr %2, align 8, !tbaa !115
  %4 = getelementptr inbounds nuw i8, ptr %0, i64 208
  %5 = load ptr, ptr %4, align 8, !tbaa !92
  %.not = icmp eq ptr %5, null
  br i1 %.not, label %6, label %7

6:                                                ; preds = %3
  tail call void (ptr, ptr, ...) @Curl_failf(ptr noundef nonnull %0, ptr noundef nonnull @.str.2) #19
  br label %50

7:                                                ; preds = %3
  %8 = getelementptr inbounds nuw i8, ptr %0, i64 1724
  %9 = load i32, ptr %8, align 4, !tbaa !236
  %.not30 = icmp eq i32 %9, 0
  br i1 %.not30, label %10, label %11

10:                                               ; preds = %7
  tail call void (ptr, ptr, ...) @Curl_failf(ptr noundef nonnull %0, ptr noundef nonnull @.str.3) #19
  br label %50

11:                                               ; preds = %7
  %12 = getelementptr inbounds nuw i8, ptr %5, i64 649
  %13 = load i8, ptr %12, align 1
  %14 = and i8 %13, 32
  %.not31 = icmp eq i8 %14, 0
  br i1 %.not31, label %16, label %15

15:                                               ; preds = %11
  tail call void (ptr, ptr, ...) @Curl_failf(ptr noundef nonnull %0, ptr noundef nonnull @.str.4) #19
  br label %50

16:                                               ; preds = %11
  %17 = getelementptr inbounds nuw i8, ptr %5, i64 272
  %18 = load ptr, ptr %17, align 8, !tbaa !111
  %.not32 = icmp eq ptr %18, null
  br i1 %.not32, label %28, label %19

19:                                               ; preds = %16
  %20 = zext i32 %9 to i64
  %21 = getelementptr inbounds nuw i8, ptr %5, i64 280
  %22 = load i64, ptr %21, align 8, !tbaa !237
  %23 = icmp ult i64 %22, %20
  br i1 %23, label %24, label %40

24:                                               ; preds = %19
  %25 = load ptr, ptr @Curl_cfree, align 8, !tbaa !3
  tail call void %25(ptr noundef nonnull %18) #19
  %26 = load ptr, ptr %4, align 8, !tbaa !92
  %27 = getelementptr inbounds nuw i8, ptr %26, i64 272
  tail call void @llvm.memset.p0.i64(ptr noundef nonnull align 8 dereferenceable(16) %27, i8 0, i64 16, i1 false)
  br label %28

28:                                               ; preds = %24, %16
  %29 = load ptr, ptr @Curl_cmalloc, align 8, !tbaa !3
  %30 = load i32, ptr %8, align 4, !tbaa !236
  %31 = zext i32 %30 to i64
  %32 = tail call ptr %29(i64 noundef %31) #19
  %33 = load ptr, ptr %4, align 8, !tbaa !92
  %34 = getelementptr inbounds nuw i8, ptr %33, i64 272
  store ptr %32, ptr %34, align 8, !tbaa !111
  %.not34 = icmp eq ptr %32, null
  %35 = load i32, ptr %8, align 4, !tbaa !236
  %36 = zext i32 %35 to i64
  br i1 %.not34, label %37, label %38

37:                                               ; preds = %28
  tail call void (ptr, ptr, ...) @Curl_failf(ptr noundef nonnull %0, ptr noundef nonnull @.str.5, i64 noundef %36) #19
  br label %50

38:                                               ; preds = %28
  %39 = getelementptr inbounds nuw i8, ptr %33, i64 280
  store i64 %36, ptr %39, align 8, !tbaa !237
  br label %40

40:                                               ; preds = %19, %38
  %41 = phi ptr [ %33, %38 ], [ %5, %19 ]
  %42 = getelementptr inbounds nuw i8, ptr %41, i64 649
  %43 = load i8, ptr %42, align 1
  %44 = or i8 %43, 32
  store i8 %44, ptr %42, align 1
  %45 = load ptr, ptr %4, align 8, !tbaa !92
  %46 = getelementptr inbounds nuw i8, ptr %45, i64 272
  %47 = load ptr, ptr %46, align 8, !tbaa !111
  store ptr %47, ptr %1, align 8, !tbaa !179
  %48 = getelementptr inbounds nuw i8, ptr %45, i64 280
  %49 = load i64, ptr %48, align 8, !tbaa !237
  store i64 %49, ptr %2, align 8, !tbaa !115
  br label %50

50:                                               ; preds = %40, %37, %15, %10, %6
  %.0 = phi i32 [ 81, %15 ], [ 0, %40 ], [ 27, %37 ], [ 2, %10 ], [ 2, %6 ]
  ret i32 %.0
}